******************************************************************************
                  TI ARM Linker PC v18.1.2                     
******************************************************************************
>> Linked Tue Jul 10 13:03:45 2018

OUTPUT FILE NAME:   <Four_axes_2018.out>
ENTRY POINT SYMBOL: "_c_int00_noargs"  address: 000012ad


MEMORY CONFIGURATION

         name            origin    length      used     unused   attr    fill
----------------------  --------  ---------  --------  --------  ----  --------
  FLASH                 00000000   00040000  00001f22  0003e0de  R  X
  SRAM                  20000000   00008000  0000078a  00007876  RW X


SEGMENT ALLOCATION MAP

run origin  load origin   length   init length attrs members
----------  ----------- ---------- ----------- ----- -------
00000000    00000000    00001f24   00001f24    r-x
  00000000    00000000    0000026c   0000026c    r-- .intvecs
  0000026c    0000026c    000011ce   000011ce    r-x .text
  0000143c    0000143c    00000914   00000914    r-- .const
  00001d50    00001d50    000001d4   000001d4    r-- .cinit
20000000    20000000    00000790   00000000    rw-
  20000000    20000000    0000058a   00000000    rw- .data
  20000590    20000590    00000200   00000000    rw- .stack


SECTION ALLOCATION MAP

 output                                  attributes/
section   page    origin      length       input sections
--------  ----  ----------  ----------   ----------------
.intvecs   0    00000000    0000026c     
                  00000000    0000026c     tm4c123gh6pm_startup_ccs.obj (.intvecs)

.text      0    0000026c    000011ce     
                  0000026c    0000082c     OLED.obj (.text)
                  00000a98    000001dc     pwm.obj (.text)
                  00000c74    00000132     driverlib.lib : gpio.obj (.text:GPIOPadConfigSet)
                  00000da6    00000002     --HOLE-- [fill = 0]
                  00000da8    00000110                   : sysctl.obj (.text:SysCtlClockGet)
                  00000eb8    000000f4     Control.obj (.text)
                  00000fac    000000f4     driverlib.lib : sysctl.obj (.text:SysCtlClockSet)
                  000010a0    0000009c     rtsv7M4_T_le_v4SPD16_eabi.lib : memcpy_t2.asm.obj (.text)
                  0000113c    00000068                                   : copy_decompress_lzss.c.obj (.text:decompress:lzss:__TI_decompress_lzss)
                  000011a4    00000048     driverlib.lib : gpio.obj (.text:GPIOPinConfigure)
                  000011ec    00000044     rtsv7M4_T_le_v4SPD16_eabi.lib : autoinit.c.obj (.text:__TI_auto_init_nobinit_nopinit:__TI_auto_init_nobinit_nopinit)
                  00001230    00000040     delay.obj (.text)
                  00001270    0000003c     main.obj (.text)
                  000012ac    00000038     rtsv7M4_T_le_v4SPD16_eabi.lib : boot_cortex_m.c.obj (.text:_c_int00_noargs:_c_int00_noargs)
                  000012e4    00000034     driverlib.lib : sysctl.obj (.text:SysCtlPeripheralEnable)
                  00001318    0000002a                   : gpio.obj (.text:GPIODirModeSet)
                  00001342    00000022                   : pwm.obj (.text:PWMGenConfigure)
                  00001364    0000001e                   : pwm.obj (.text:PWMPulseWidthSet)
                  00001382    00000018                   : gpio.obj (.text:GPIOPinTypeGPIOOutput)
                  0000139a    00000002     --HOLE-- [fill = 0]
                  0000139c    00000014                   : sysctl.obj (.text:SysCtlPWMClockSet)
                  000013b0    00000012                   : gpio.obj (.text:GPIOPinTypePWM)
                  000013c2    00000012                   : pwm.obj (.text:PWMOutputState)
                  000013d4    00000010                   : pwm.obj (.text:PWMDeadBandEnable)
                  000013e4    00000010                   : pwm.obj (.text:PWMGenPeriodSet)
                  000013f4    0000000e     rtsv7M4_T_le_v4SPD16_eabi.lib : copy_decompress_none.c.obj (.text:decompress:none:__TI_decompress_none)
                  00001402    0000000c     driverlib.lib : pwm.obj (.text:PWMGenDisable)
                  0000140e    0000000c                   : pwm.obj (.text:PWMGenEnable)
                  0000141a    0000000c     tm4c123gh6pm_startup_ccs.obj (.text)
                  00001426    00000006     driverlib.lib : gpio.obj (.text:GPIOPinWrite)
                  0000142c    00000006                   : sysctl.obj (.text:SysCtlDelay)
                  00001432    00000004     rtsv7M4_T_le_v4SPD16_eabi.lib : pre_init.c.obj (.text:_system_pre_init)
                  00001436    00000004                                   : exit.c.obj (.text:abort:abort)

.const     0    0000143c    00000914     
                  0000143c    000005f0     OLED.obj (.const:.string:F8X16)
                  00001a2c    00000228     OLED.obj (.const:F6x8)
                  00001c54    00000090     driverlib.lib : gpio.obj (.const:g_pui32GPIOBaseAddrs)
                  00001ce4    0000006c                   : sysctl.obj (.const:g_pui32Xtals)

.cinit     0    00001d50    000001d4     
                  00001d50    000001c1     (.cinit..data.load) [load image, compression = lzss]
                  00001f11    00000003     --HOLE-- [fill = 0]
                  00001f14    00000008     (__TI_handler_table)
                  00001f1c    00000008     (__TI_cinit_table)

.init_array 
*          0    00000000    00000000     UNINITIALIZED

.data      0    20000000    0000058a     UNINITIALIZED
                  20000000    00000400     main.obj (.data:BMP3)
                  20000400    00000180     OLED.obj (.data:Hzk)
                  20000580    0000000a     pwm.obj (.data)

.stack     0    20000590    00000200     UNINITIALIZED
                  20000590    00000004     rtsv7M4_T_le_v4SPD16_eabi.lib : boot_cortex_m.c.obj (.stack)
                  20000594    000001fc     --HOLE--

MODULE SUMMARY

       Module                         code   ro data   rw data
       ------                         ----   -------   -------
    .\
       main.obj                       60     0         1024   
       tm4c123gh6pm_startup_ccs.obj   12     620       0      
    +--+------------------------------+------+---------+---------+
       Total:                         72     620       1024   
                                                              
    .\9.6'OLED\
       OLED.obj                       2092   2072      384    
    +--+------------------------------+------+---------+---------+
       Total:                         2092   2072      384    
                                                              
    .\Control\
       Control.obj                    244    0         0      
    +--+------------------------------+------+---------+---------+
       Total:                         244    0         0      
                                                              
    .\Pwm\
       pwm.obj                        476    0         10     
    +--+------------------------------+------+---------+---------+
       Total:                         476    0         10     
                                                              
    .\delay\
       delay.obj                      64     0         0      
    +--+------------------------------+------+---------+---------+
       Total:                         64     0         0      
                                                              
    D:/ti/TivaWare_C_Series-2.1.4.178/driverlib/ccs/Debug/driverlib.lib
       sysctl.obj                     594    108       0      
       gpio.obj                       468    144       0      
       pwm.obj                        138    0         0      
    +--+------------------------------+------+---------+---------+
       Total:                         1200   252       0      
                                                              
    D:\Project_Program\Ccs\ccsv8\tools\compiler\ti-cgt-arm_18.1.2.LTS\lib\rtsv7M4_T_le_v4SPD16_eabi.lib
       memcpy_t2.asm.obj              156    0         0      
       copy_decompress_lzss.c.obj     104    0         0      
       autoinit.c.obj                 68     0         0      
       boot_cortex_m.c.obj            56     0         0      
       copy_decompress_none.c.obj     14     0         0      
       exit.c.obj                     4      0         0      
       pre_init.c.obj                 4      0         0      
    +--+------------------------------+------+---------+---------+
       Total:                         406    0         0      
                                                              
       Stack:                         0      0         512    
       Linker Generated:              0      465       0      
    +--+------------------------------+------+---------+---------+
       Grand Total:                   4554   3409      1930   


LINKER GENERATED COPY TABLES

__TI_cinit_table @ 00001f1c records: 1, size/record: 8, table size: 8
	.data: load addr=00001d50, load size=000001c1 bytes, run addr=20000000, run size=0000058a bytes, compression=lzss


LINKER GENERATED HANDLER TABLE

__TI_handler_table @ 00001f14 records: 2, size/record: 4, table size: 8
	index: 0, handler: __TI_decompress_lzss
	index: 1, handler: __TI_decompress_none


GLOBAL SYMBOLS: SORTED ALPHABETICALLY BY Name 

address   name                          
-------   ----                          
20000000  BMP3                          
00000a99  BeepPwmInit                   
00001437  C$$EXIT                       
00001231  Delay_ms                      
0000124f  Delay_us                      
00001a2c  F6x8                          
0000143c  F8X16                         
00001319  GPIODirModeSet                
00000c75  GPIOPadConfigSet              
000011a5  GPIOPinConfigure              
00001383  GPIOPinTypeGPIOOutput         
000013b1  GPIOPinTypePWM                
00001427  GPIOPinWrite                  
0000026d  GPIO_Init                     
00001271  HardwareConfig                
20000400  Hzk                           
0000028f  IIC_Start                     
000002bf  IIC_Stop                      
000002e5  IIC_Wait_Ack                  
00000f69  LandMode                      
00000f39  LockPixhawk                   
000004e9  OLED_Clear                    
000004cd  OLED_Display_Off              
000004b1  OLED_Display_On               
00000905  OLED_DrawBMP                  
000009b5  OLED_Init                     
00000551  OLED_On                       
00000477  OLED_Set_Pos                  
00000849  OLED_ShowCHinese              
000005c5  OLED_ShowChar                 
00000711  OLED_ShowNum                  
000007df  OLED_ShowString               
000003eb  OLED_WR_Byte                  
000013d5  PWMDeadBandEnable             
00001343  PWMGenConfigure               
00001403  PWMGenDisable                 
0000140f  PWMGenEnable                  
000013e5  PWMGenPeriodSet               
000013c3  PWMOutputState                
00001365  PWMPulseWidthSet              
20000580  PwmChannel_1                  
20000582  PwmChannel_2                  
20000584  PwmChannel_3                  
20000586  PwmChannel_4                  
20000588  PwmChannel_5                  
00000b19  PwmConfig                     
0000141b  ResetISR                      
00000da9  SysCtlClockGet                
00000fad  SysCtlClockSet                
0000142d  SysCtlDelay                   
0000139d  SysCtlPWMClockSet             
000012e5  SysCtlPeripheralEnable        
00000eb9  UnlockPixhawk                 
000002fd  Write_IIC_Byte                
0000038b  Write_IIC_Command             
000003bb  Write_IIC_Data                
20000790  __STACK_END                   
00000200  __STACK_SIZE                  
20000790  __STACK_TOP                   
00001f1c  __TI_CINIT_Base               
00001f24  __TI_CINIT_Limit              
00001f14  __TI_Handler_Table_Base       
00001f1c  __TI_Handler_Table_Limit      
000011ed  __TI_auto_init_nobinit_nopinit
0000113d  __TI_decompress_lzss          
000013f5  __TI_decompress_none          
ffffffff  __TI_pprof_out_hndl           
ffffffff  __TI_prof_data_size           
ffffffff  __TI_prof_data_start          
00000000  __TI_static_base__            
000010a1  __aeabi_memcpy                
000010a1  __aeabi_memcpy4               
000010a1  __aeabi_memcpy8               
ffffffff  __binit__                     
ffffffff  __c_args__                    
UNDEFED   __mpu_init                    
20000590  __stack                       
000012ad  _c_int00_noargs               
UNDEFED   _system_post_cinit            
00001433  _system_pre_init              
00001437  abort                         
ffffffff  binit                         
00000409  fill_picture                  
00000000  g_pfnVectors                  
00001291  main                          
000010a1  memcpy                        
000006e1  oled_pow                      


GLOBAL SYMBOLS: SORTED BY Symbol Address 

address   name                          
-------   ----                          
00000000  __TI_static_base__            
00000000  g_pfnVectors                  
00000200  __STACK_SIZE                  
0000026d  GPIO_Init                     
0000028f  IIC_Start                     
000002bf  IIC_Stop                      
000002e5  IIC_Wait_Ack                  
000002fd  Write_IIC_Byte                
0000038b  Write_IIC_Command             
000003bb  Write_IIC_Data                
000003eb  OLED_WR_Byte                  
00000409  fill_picture                  
00000477  OLED_Set_Pos                  
000004b1  OLED_Display_On               
000004cd  OLED_Display_Off              
000004e9  OLED_Clear                    
00000551  OLED_On                       
000005c5  OLED_ShowChar                 
000006e1  oled_pow                      
00000711  OLED_ShowNum                  
000007df  OLED_ShowString               
00000849  OLED_ShowCHinese              
00000905  OLED_DrawBMP                  
000009b5  OLED_Init                     
00000a99  BeepPwmInit                   
00000b19  PwmConfig                     
00000c75  GPIOPadConfigSet              
00000da9  SysCtlClockGet                
00000eb9  UnlockPixhawk                 
00000f39  LockPixhawk                   
00000f69  LandMode                      
00000fad  SysCtlClockSet                
000010a1  __aeabi_memcpy                
000010a1  __aeabi_memcpy4               
000010a1  __aeabi_memcpy8               
000010a1  memcpy                        
0000113d  __TI_decompress_lzss          
000011a5  GPIOPinConfigure              
000011ed  __TI_auto_init_nobinit_nopinit
00001231  Delay_ms                      
0000124f  Delay_us                      
00001271  HardwareConfig                
00001291  main                          
000012ad  _c_int00_noargs               
000012e5  SysCtlPeripheralEnable        
00001319  GPIODirModeSet                
00001343  PWMGenConfigure               
00001365  PWMPulseWidthSet              
00001383  GPIOPinTypeGPIOOutput         
0000139d  SysCtlPWMClockSet             
000013b1  GPIOPinTypePWM                
000013c3  PWMOutputState                
000013d5  PWMDeadBandEnable             
000013e5  PWMGenPeriodSet               
000013f5  __TI_decompress_none          
00001403  PWMGenDisable                 
0000140f  PWMGenEnable                  
0000141b  ResetISR                      
00001427  GPIOPinWrite                  
0000142d  SysCtlDelay                   
00001433  _system_pre_init              
00001437  C$$EXIT                       
00001437  abort                         
0000143c  F8X16                         
00001a2c  F6x8                          
00001f14  __TI_Handler_Table_Base       
00001f1c  __TI_CINIT_Base               
00001f1c  __TI_Handler_Table_Limit      
00001f24  __TI_CINIT_Limit              
20000000  BMP3                          
20000400  Hzk                           
20000580  PwmChannel_1                  
20000582  PwmChannel_2                  
20000584  PwmChannel_3                  
20000586  PwmChannel_4                  
20000588  PwmChannel_5                  
20000590  __stack                       
20000790  __STACK_END                   
20000790  __STACK_TOP                   
ffffffff  __TI_pprof_out_hndl           
ffffffff  __TI_prof_data_size           
ffffffff  __TI_prof_data_start          
ffffffff  __binit__                     
ffffffff  __c_args__                    
ffffffff  binit                         
UNDEFED   __mpu_init                    
UNDEFED   _system_post_cinit            

[87 symbols]
